; Function Attrs: mustprogress uwtable
define void @_ZN10open_spiel12EvaluateBotsERKNS_4GameERKSt6vectorIPNS_3BotESaIS5_EEi(ptr dead_on_unwind noalias writable sret(%"class.std::vector") align 8 %0, ptr noundef nonnull align 8 dereferenceable(280) %1, ptr nocapture noundef nonnull readonly align 8 dereferenceable(24) %2, i32 noundef %3) local_unnamed_addr #3 personality ptr @__gxx_personality_v0 {
  %5 = alloca %"class.std::unique_ptr", align 8
  %6 = load ptr, ptr %1, align 8
  %7 = getelementptr inbounds i8, ptr %6, i64 24
  %8 = load ptr, ptr %7, align 8
  call void %8(ptr dead_on_unwind nonnull writable sret(%"class.std::unique_ptr") align 8 %5, ptr noundef nonnull align 8 dereferenceable(280) %1)
  %9 = load ptr, ptr %5, align 8
  invoke void @_ZN10open_spiel12EvaluateBotsEPNS_5StateERKSt6vectorIPNS_3BotESaIS4_EEi(ptr dead_on_unwind writable sret(%"class.std::vector") align 8 %0, ptr noundef %9, ptr noundef nonnull align 8 dereferenceable(24) %2, i32 noundef %3)
          to label %10 unwind label %15

10:                                               ; preds = %4
  %11 = load ptr, ptr %5, align 8
  %.not.i = icmp eq ptr %11, null
  br i1 %.not.i, label %_ZNSt10unique_ptrIN10open_spiel5StateESt14default_deleteIS1_EED2Ev.exit, label %_ZNKSt14default_deleteIN10open_spiel5StateEEclEPS1_.exit.i

_ZNKSt14default_deleteIN10open_spiel5StateEEclEPS1_.exit.i: ; preds = %10
  %12 = load ptr, ptr %11, align 8
  %13 = getelementptr inbounds i8, ptr %12, i64 8
  %14 = load ptr, ptr %13, align 8
  call void %14(ptr noundef nonnull align 8 dereferenceable(60) %11) #17
  br label %_ZNSt10unique_ptrIN10open_spiel5StateESt14default_deleteIS1_EED2Ev.exit

_ZNSt10unique_ptrIN10open_spiel5StateESt14default_deleteIS1_EED2Ev.exit: ; preds = %10, %_ZNKSt14default_deleteIN10open_spiel5StateEEclEPS1_.exit.i
  ret void

15:                                               ; preds = %4
  %16 = landingpad { ptr, i32 }
          cleanup
  %17 = load ptr, ptr %5, align 8
  %.not.i4 = icmp eq ptr %17, null
  br i1 %.not.i4, label %_ZNSt10unique_ptrIN10open_spiel5StateESt14default_deleteIS1_EED2Ev.exit6, label %_ZNKSt14default_deleteIN10open_spiel5StateEEclEPS1_.exit.i5

_ZNKSt14default_deleteIN10open_spiel5StateEEclEPS1_.exit.i5: ; preds = %15
  %18 = load ptr, ptr %17, align 8
  %19 = getelementptr inbounds i8, ptr %18, i64 8
  %20 = load ptr, ptr %19, align 8
  call void %20(ptr noundef nonnull align 8 dereferenceable(60) %17) #17
  br label %_ZNSt10unique_ptrIN10open_spiel5StateESt14default_deleteIS1_EED2Ev.exit6

_ZNSt10unique_ptrIN10open_spiel5StateESt14default_deleteIS1_EED2Ev.exit6: ; preds = %15, %_ZNKSt14default_deleteIN10open_spiel5StateEEclEPS1_.exit.i5
  resume { ptr, i32 } %16
}